target datalayout = "e-m:e-p270:32:32-p271:32:32-p272:64:64-i64:64-i128:128-f80:128-n8:16:32:64-S128"
target triple = "x86_64-pc-linux-gnu"

%struct.JNINativeInterface_ = type { ptr, ptr, ptr, ptr, ptr, ptr, ptr, ptr, ptr, ptr, ptr, ptr, ptr, ptr, ptr, ptr, ptr, ptr, ptr, ptr, ptr, ptr, ptr, ptr, ptr, ptr, ptr, ptr, ptr, ptr, ptr, ptr, ptr, ptr, ptr, ptr, ptr, ptr, ptr, ptr, ptr, ptr, ptr, ptr, ptr, ptr, ptr, ptr, ptr, ptr, ptr, ptr, ptr, ptr, ptr, ptr, ptr, ptr, ptr, ptr, ptr, ptr, ptr, ptr, ptr, ptr, ptr, ptr, ptr, ptr, ptr, ptr, ptr, ptr, ptr, ptr, ptr, ptr, ptr, ptr, ptr, ptr, ptr, ptr, ptr, ptr, ptr, ptr, ptr, ptr, ptr, ptr, ptr, ptr, ptr, ptr, ptr, ptr, ptr, ptr, ptr, ptr, ptr, ptr, ptr, ptr, ptr, ptr, ptr, ptr, ptr, ptr, ptr, ptr, ptr, ptr, ptr, ptr, ptr, ptr, ptr, ptr, ptr, ptr, ptr, ptr, ptr, ptr, ptr, ptr, ptr, ptr, ptr, ptr, ptr, ptr, ptr, ptr, ptr, ptr, ptr, ptr, ptr, ptr, ptr, ptr, ptr, ptr, ptr, ptr, ptr, ptr, ptr, ptr, ptr, ptr, ptr, ptr, ptr, ptr, ptr, ptr, ptr, ptr, ptr, ptr, ptr, ptr, ptr, ptr, ptr, ptr, ptr, ptr, ptr, ptr, ptr, ptr, ptr, ptr, ptr, ptr, ptr, ptr, ptr, ptr, ptr, ptr, ptr, ptr, ptr, ptr, ptr, ptr, ptr, ptr, ptr, ptr, ptr, ptr, ptr, ptr, ptr, ptr, ptr, ptr, ptr, ptr, ptr, ptr, ptr, ptr, ptr, ptr, ptr, ptr, ptr, ptr, ptr, ptr, ptr, ptr, ptr, ptr, ptr, ptr, ptr, ptr, ptr, ptr, ptr, ptr, ptr, ptr, ptr }

@.str.1 = private unnamed_addr constant [60 x i8] c"src/java.instrument/share/native/libinstrument/JPLISAgent.c\00", align 1
@.str.46 = private unnamed_addr constant [16 x i8] c"java/lang/Class\00", align 1
@.str.47 = private unnamed_addr constant [24 x i8] c"classArrayClass != NULL\00", align 1
@.str.48 = private unnamed_addr constant [30 x i8] c"FindClass returned null class\00", align 1
@.str.49 = private unnamed_addr constant [19 x i8] c"localArray != NULL\00", align 1
@.str.50 = private unnamed_addr constant [35 x i8] c"NewObjectArray returned null array\00", align 1

; Function Attrs: nounwind uwtable
define hidden ptr @getObjectArrayFromClasses(ptr noundef %0, ptr noundef %1, i32 noundef %2) #0 {
  %4 = alloca ptr, align 8
  %5 = alloca ptr, align 8
  %6 = alloca i32, align 4
  %7 = alloca ptr, align 8
  %8 = alloca ptr, align 8
  %9 = alloca i32, align 4
  %10 = alloca i8, align 1
  store ptr %0, ptr %4, align 8
  store ptr %1, ptr %5, align 8
  store i32 %2, ptr %6, align 4
  store ptr null, ptr %7, align 8
  store ptr null, ptr %8, align 8
  store i32 0, ptr %9, align 4
  store i8 0, ptr %10, align 1
  %11 = load ptr, ptr %4, align 8
  %12 = load ptr, ptr %11, align 8
  %13 = getelementptr inbounds %struct.JNINativeInterface_, ptr %12, i32 0, i32 6
  %14 = load ptr, ptr %13, align 8
  %15 = load ptr, ptr %4, align 8
  %16 = call ptr %14(ptr noundef %15, ptr noundef @.str.46)
  store ptr %16, ptr %7, align 8
  %17 = load ptr, ptr %4, align 8
  %18 = call zeroext i8 @checkForThrowable(ptr noundef %17)
  store i8 %18, ptr %10, align 1
  %19 = load i8, ptr %10, align 1
  %20 = icmp ne i8 %19, 0
  br i1 %20, label %71, label %21

21:                                               ; preds = %3
  %22 = load ptr, ptr %7, align 8
  %23 = icmp ne ptr %22, null
  %24 = zext i1 %23 to i32
  %25 = trunc i32 %24 to i8
  call void @JPLISAssertConditionWithMessage(i8 noundef zeroext %25, ptr noundef @.str.47, ptr noundef @.str.48, ptr noundef @.str.1, i32 noundef 989)
  %26 = load ptr, ptr %4, align 8
  %27 = load ptr, ptr %26, align 8
  %28 = getelementptr inbounds %struct.JNINativeInterface_, ptr %27, i32 0, i32 172
  %29 = load ptr, ptr %28, align 8
  %30 = load ptr, ptr %4, align 8
  %31 = load i32, ptr %6, align 4
  %32 = load ptr, ptr %7, align 8
  %33 = call ptr %29(ptr noundef %30, i32 noundef %31, ptr noundef %32, ptr noundef null)
  store ptr %33, ptr %8, align 8
  %34 = load ptr, ptr %4, align 8
  %35 = call zeroext i8 @checkForThrowable(ptr noundef %34)
  store i8 %35, ptr %10, align 1
  %36 = load i8, ptr %10, align 1
  %37 = icmp ne i8 %36, 0
  br i1 %37, label %70, label %38

38:                                               ; preds = %21
  %39 = load ptr, ptr %8, align 8
  %40 = icmp ne ptr %39, null
  %41 = zext i1 %40 to i32
  %42 = trunc i32 %41 to i8
  call void @JPLISAssertConditionWithMessage(i8 noundef zeroext %42, ptr noundef @.str.49, ptr noundef @.str.50, ptr noundef @.str.1, i32 noundef 996)
  store i32 0, ptr %9, align 4
  br label %43

43:                                               ; preds = %66, %38
  %44 = load i32, ptr %9, align 4
  %45 = load i32, ptr %6, align 4
  %46 = icmp slt i32 %44, %45
  br i1 %46, label %47, label %69

47:                                               ; preds = %43
  %48 = load ptr, ptr %4, align 8
  %49 = load ptr, ptr %48, align 8
  %50 = getelementptr inbounds %struct.JNINativeInterface_, ptr %49, i32 0, i32 174
  %51 = load ptr, ptr %50, align 8
  %52 = load ptr, ptr %4, align 8
  %53 = load ptr, ptr %8, align 8
  %54 = load i32, ptr %9, align 4
  %55 = load ptr, ptr %5, align 8
  %56 = load i32, ptr %9, align 4
  %57 = sext i32 %56 to i64
  %58 = getelementptr inbounds ptr, ptr %55, i64 %57
  %59 = load ptr, ptr %58, align 8
  call void %51(ptr noundef %52, ptr noundef %53, i32 noundef %54, ptr noundef %59)
  %60 = load ptr, ptr %4, align 8
  %61 = call zeroext i8 @checkForThrowable(ptr noundef %60)
  store i8 %61, ptr %10, align 1
  %62 = load i8, ptr %10, align 1
  %63 = icmp ne i8 %62, 0
  br i1 %63, label %64, label %65

64:                                               ; preds = %47
  store ptr null, ptr %8, align 8
  br label %69

65:                                               ; preds = %47
  br label %66

66:                                               ; preds = %65
  %67 = load i32, ptr %9, align 4
  %68 = add nsw i32 %67, 1
  store i32 %68, ptr %9, align 4
  br label %43, !llvm.loop !6

69:                                               ; preds = %64, %43
  br label %70

70:                                               ; preds = %69, %21
  br label %71

71:                                               ; preds = %70, %3
  %72 = load ptr, ptr %8, align 8
  ret ptr %72
}