; Function Attrs: nounwind uwtable
define hidden ptr @getObjectArrayFromClasses(ptr noundef %0, ptr nocapture noundef readonly %1, i32 noundef %2) local_unnamed_addr #0 {
  %4 = load ptr, ptr %0, align 8
  %5 = getelementptr inbounds i8, ptr %4, i64 48
  %6 = load ptr, ptr %5, align 8
  %7 = tail call ptr %6(ptr noundef nonnull %0, ptr noundef nonnull @.str.46) #10
  %8 = tail call zeroext i8 @checkForThrowable(ptr noundef nonnull %0) #10
  %.not = icmp eq i8 %8, 0
  br i1 %.not, label %9, label %.loopexit

9:                                                ; preds = %3
  %10 = icmp ne ptr %7, null
  %11 = zext i1 %10 to i8
  tail call void @JPLISAssertConditionWithMessage(i8 noundef zeroext %11, ptr noundef nonnull @.str.47, ptr noundef nonnull @.str.48, ptr noundef nonnull @.str.1, i32 noundef 989) #10
  %12 = load ptr, ptr %0, align 8
  %13 = getelementptr inbounds i8, ptr %12, i64 1376
  %14 = load ptr, ptr %13, align 8
  %15 = tail call ptr %14(ptr noundef nonnull %0, i32 noundef %2, ptr noundef %7, ptr noundef null) #10
  %16 = tail call zeroext i8 @checkForThrowable(ptr noundef nonnull %0) #10
  %.not24 = icmp eq i8 %16, 0
  br i1 %.not24, label %17, label %.loopexit

17:                                               ; preds = %9
  %18 = icmp ne ptr %15, null
  %19 = zext i1 %18 to i8
  tail call void @JPLISAssertConditionWithMessage(i8 noundef zeroext %19, ptr noundef nonnull @.str.49, ptr noundef nonnull @.str.50, ptr noundef nonnull @.str.1, i32 noundef 996) #10
  %20 = icmp sgt i32 %2, 0
  br i1 %20, label %.lr.ph.preheader, label %.loopexit

.lr.ph.preheader:                                 ; preds = %17
  %wide.trip.count = zext nneg i32 %2 to i64
  br label %.lr.ph

21:                                               ; preds = %.lr.ph
  %indvars.iv.next = add nuw nsw i64 %indvars.iv, 1
  %exitcond.not = icmp eq i64 %indvars.iv.next, %wide.trip.count
  br i1 %exitcond.not, label %.loopexit, label %.lr.ph, !llvm.loop !6

.lr.ph:                                           ; preds = %.lr.ph.preheader, %21
  %indvars.iv = phi i64 [ 0, %.lr.ph.preheader ], [ %indvars.iv.next, %21 ]
  %22 = load ptr, ptr %0, align 8
  %23 = getelementptr inbounds i8, ptr %22, i64 1392
  %24 = load ptr, ptr %23, align 8
  %25 = getelementptr inbounds ptr, ptr %1, i64 %indvars.iv
  %26 = load ptr, ptr %25, align 8
  %27 = trunc nuw nsw i64 %indvars.iv to i32
  tail call void %24(ptr noundef nonnull %0, ptr noundef %15, i32 noundef %27, ptr noundef %26) #10
  %28 = tail call zeroext i8 @checkForThrowable(ptr noundef nonnull %0) #10
  %.not25 = icmp eq i8 %28, 0
  br i1 %.not25, label %21, label %.loopexit

.loopexit:                                        ; preds = %21, %.lr.ph, %17, %9, %3
  %.023 = phi ptr [ null, %3 ], [ %15, %9 ], [ %15, %17 ], [ %15, %21 ], [ null, %.lr.ph ]
  ret ptr %.023
}